target datalayout = "e-m:e-p270:32:32-p271:32:32-p272:64:64-i64:64-i128:128-f80:128-n8:16:32:64-S128"
target triple = "x86_64-pc-linux-gnu"

%"struct.OpenImageIO::v3_1_0::TypeDesc" = type { i8, i8, i8, i8, i32 }
%"class.OpenImageIO::v3_1_0::OpenEXRCoreInput" = type { %"class.OpenImageIO::v3_1_0::ImageInput", %"class.std::vector.12", i32, i32, ptr, %"struct.OpenImageIO::v3_1_0::oiioexr_filebuf_struct", %"class.std::unique_ptr.17", i32, %"class.std::vector.25" }
%"class.OpenImageIO::v3_1_0::ImageInput" = type { ptr, %"class.OpenImageIO::v3_1_0::ImageSpec", %"class.std::unique_ptr" }
%"class.OpenImageIO::v3_1_0::ImageSpec" = type { i32, i32, i32, i32, i32, i32, i32, i32, i32, i32, i32, i32, i32, i32, i32, i32, %"struct.OpenImageIO::v3_1_0::TypeDesc", %"class.std::vector", %"class.std::vector.0", i32, i32, i8, %"class.OpenImageIO::v3_1_0::ParamValueList" }
%"class.std::vector" = type { %"struct.std::_Vector_base" }
%"struct.std::_Vector_base" = type { %"struct.std::_Vector_base<OpenImageIO::v3_1_0::TypeDesc, std::allocator<OpenImageIO::v3_1_0::TypeDesc>>::_Vector_impl" }
%"struct.std::_Vector_base<OpenImageIO::v3_1_0::TypeDesc, std::allocator<OpenImageIO::v3_1_0::TypeDesc>>::_Vector_impl" = type { %"struct.std::_Vector_base<OpenImageIO::v3_1_0::TypeDesc, std::allocator<OpenImageIO::v3_1_0::TypeDesc>>::_Vector_impl_data" }
%"struct.std::_Vector_base<OpenImageIO::v3_1_0::TypeDesc, std::allocator<OpenImageIO::v3_1_0::TypeDesc>>::_Vector_impl_data" = type { ptr, ptr, ptr }
%"class.std::vector.0" = type { %"struct.std::_Vector_base.1" }
%"struct.std::_Vector_base.1" = type { %"struct.std::_Vector_base<std::__cxx11::basic_string<char>, std::allocator<std::__cxx11::basic_string<char>>>::_Vector_impl" }
%"struct.std::_Vector_base<std::__cxx11::basic_string<char>, std::allocator<std::__cxx11::basic_string<char>>>::_Vector_impl" = type { %"struct.std::_Vector_base<std::__cxx11::basic_string<char>, std::allocator<std::__cxx11::basic_string<char>>>::_Vector_impl_data" }
%"struct.std::_Vector_base<std::__cxx11::basic_string<char>, std::allocator<std::__cxx11::basic_string<char>>>::_Vector_impl_data" = type { ptr, ptr, ptr }
%"class.OpenImageIO::v3_1_0::ParamValueList" = type { %"class.std::vector.5" }
%"class.std::vector.5" = type { %"struct.std::_Vector_base.6" }
%"struct.std::_Vector_base.6" = type { %"struct.std::_Vector_base<OpenImageIO::v3_1_0::ParamValue, std::allocator<OpenImageIO::v3_1_0::ParamValue>>::_Vector_impl" }
%"struct.std::_Vector_base<OpenImageIO::v3_1_0::ParamValue, std::allocator<OpenImageIO::v3_1_0::ParamValue>>::_Vector_impl" = type { %"struct.std::_Vector_base<OpenImageIO::v3_1_0::ParamValue, std::allocator<OpenImageIO::v3_1_0::ParamValue>>::_Vector_impl_data" }
%"struct.std::_Vector_base<OpenImageIO::v3_1_0::ParamValue, std::allocator<OpenImageIO::v3_1_0::ParamValue>>::_Vector_impl_data" = type { ptr, ptr, ptr }
%"class.std::unique_ptr" = type { %"struct.std::__uniq_ptr_data" }
%"struct.std::__uniq_ptr_data" = type { %"class.std::__uniq_ptr_impl" }
%"class.std::__uniq_ptr_impl" = type { %"class.std::tuple" }
%"class.std::tuple" = type { %"struct.std::_Tuple_impl" }
%"struct.std::_Tuple_impl" = type { %"struct.std::_Tuple_impl.10", %"struct.std::_Head_base.11" }
%"struct.std::_Tuple_impl.10" = type { %"struct.std::_Head_base" }
%"struct.std::_Head_base" = type { ptr }
%"struct.std::_Head_base.11" = type { ptr }
%"class.std::vector.12" = type { %"struct.std::_Vector_base.13" }
%"struct.std::_Vector_base.13" = type { %"struct.std::_Vector_base<OpenImageIO::v3_1_0::OpenEXRCoreInput::PartInfo, std::allocator<OpenImageIO::v3_1_0::OpenEXRCoreInput::PartInfo>>::_Vector_impl" }
%"struct.std::_Vector_base<OpenImageIO::v3_1_0::OpenEXRCoreInput::PartInfo, std::allocator<OpenImageIO::v3_1_0::OpenEXRCoreInput::PartInfo>>::_Vector_impl" = type { %"struct.std::_Vector_base<OpenImageIO::v3_1_0::OpenEXRCoreInput::PartInfo, std::allocator<OpenImageIO::v3_1_0::OpenEXRCoreInput::PartInfo>>::_Vector_impl_data" }
%"struct.std::_Vector_base<OpenImageIO::v3_1_0::OpenEXRCoreInput::PartInfo, std::allocator<OpenImageIO::v3_1_0::OpenEXRCoreInput::PartInfo>>::_Vector_impl_data" = type { ptr, ptr, ptr }
%"struct.OpenImageIO::v3_1_0::oiioexr_filebuf_struct" = type { ptr, ptr }
%"class.std::unique_ptr.17" = type { %"struct.std::__uniq_ptr_data.18" }
%"struct.std::__uniq_ptr_data.18" = type { %"class.std::__uniq_ptr_impl.19" }
%"class.std::__uniq_ptr_impl.19" = type { %"class.std::tuple.20" }
%"class.std::tuple.20" = type { %"struct.std::_Tuple_impl.21" }
%"struct.std::_Tuple_impl.21" = type { %"struct.std::_Head_base.24" }
%"struct.std::_Head_base.24" = type { ptr }
%"class.std::vector.25" = type { %"struct.std::_Vector_base.26" }
%"struct.std::_Vector_base.26" = type { %"struct.std::_Vector_base<float, std::allocator<float>>::_Vector_impl" }
%"struct.std::_Vector_base<float, std::allocator<float>>::_Vector_impl" = type { %"struct.std::_Vector_base<float, std::allocator<float>>::_Vector_impl_data" }
%"struct.std::_Vector_base<float, std::allocator<float>>::_Vector_impl_data" = type { ptr, ptr, ptr }

@.str.84 = private unnamed_addr constant [63 x i8] c"called OpenEXRInput::read_native_scanline without an open file\00", align 1

; Function Attrs: mustprogress uwtable
define hidden noundef zeroext i1 @_ZN11OpenImageIO6v3_1_016OpenEXRCoreInput20read_native_scanlineEiiiiPv(ptr noundef nonnull align 8 dereferenceable(280) %0, i32 noundef %1, i32 noundef %2, i32 noundef %3, i32 noundef %4, ptr noundef %5) unnamed_addr #6 align 2 {
  %7 = alloca i1, align 1
  %8 = alloca ptr, align 8
  %9 = alloca i32, align 4
  %10 = alloca i32, align 4
  %11 = alloca i32, align 4
  %12 = alloca i32, align 4
  %13 = alloca ptr, align 8
  %14 = alloca ptr, align 8
  store ptr %0, ptr %8, align 8, !tbaa !24
  store i32 %1, ptr %9, align 4, !tbaa !107
  store i32 %2, ptr %10, align 4, !tbaa !107
  store i32 %3, ptr %11, align 4, !tbaa !107
  store i32 %4, ptr %12, align 4, !tbaa !107
  store ptr %5, ptr %13, align 8, !tbaa !109
  %15 = load ptr, ptr %8, align 8
  %16 = getelementptr inbounds nuw %"class.OpenImageIO::v3_1_0::OpenEXRCoreInput", ptr %15, i32 0, i32 4
  %17 = load ptr, ptr %16, align 8, !tbaa !28
  %18 = icmp ne ptr %17, null
  br i1 %18, label %20, label %19

19:                                               ; preds = %6
  call void @_ZNK11OpenImageIO6v3_1_010ImageInput8errorfmtIJEEEvPKcDpRKT_(ptr noundef nonnull align 8 dereferenceable(184) %15, ptr noundef @.str.84)
  store i1 false, ptr %7, align 1
  br label %35

20:                                               ; preds = %6
  call void @llvm.lifetime.start.p0(i64 8, ptr %14) #5
  %21 = load i32, ptr %9, align 4, !tbaa !107
  %22 = load i32, ptr %10, align 4, !tbaa !107
  %23 = call noundef nonnull align 8 dereferenceable(160) ptr @_ZN11OpenImageIO6v3_1_016OpenEXRCoreInput9init_partEii(ptr noundef nonnull align 8 dereferenceable(280) %15, i32 noundef %21, i32 noundef %22)
  store ptr %23, ptr %14, align 8, !tbaa !116
  %24 = load i32, ptr %9, align 4, !tbaa !107
  %25 = load i32, ptr %10, align 4, !tbaa !107
  %26 = load i32, ptr %11, align 4, !tbaa !107
  %27 = load i32, ptr %11, align 4, !tbaa !107
  %28 = add nsw i32 %27, 1
  %29 = load i32, ptr %12, align 4, !tbaa !107
  %30 = load ptr, ptr %14, align 8, !tbaa !116
  %31 = getelementptr inbounds nuw %"class.OpenImageIO::v3_1_0::ImageSpec", ptr %30, i32 0, i32 15
  %32 = load i32, ptr %31, align 4, !tbaa !308
  %33 = load ptr, ptr %13, align 8, !tbaa !109
  %34 = call noundef zeroext i1 @_ZN11OpenImageIO6v3_1_016OpenEXRCoreInput21read_native_scanlinesEiiiiiiiPv(ptr noundef nonnull align 8 dereferenceable(280) %15, i32 noundef %24, i32 noundef %25, i32 noundef %26, i32 noundef %28, i32 noundef %29, i32 noundef 0, i32 noundef %32, ptr noundef %33)
  store i1 %34, ptr %7, align 1
  call void @llvm.lifetime.end.p0(i64 8, ptr %14) #5
  br label %35

35:                                               ; preds = %20, %19
  %36 = load i1, ptr %7, align 1
  ret i1 %36
}