; Function Attrs: mustprogress uwtable
define hidden noundef zeroext i1 @_ZN11OpenImageIO6v3_1_016OpenEXRCoreInput20read_native_scanlineEiiiiPv(ptr noundef nonnull align 8 dereferenceable(280) %0, i32 noundef %1, i32 noundef %2, i32 noundef %3, i32 noundef %4, ptr noundef %5) unnamed_addr #5 align 2 {
  %7 = getelementptr inbounds nuw i8, ptr %0, i64 216
  %8 = load ptr, ptr %7, align 8, !tbaa !138
  %.not = icmp eq ptr %8, null
  br i1 %.not, label %9, label %10

9:                                                ; preds = %6
  tail call void @_ZNK11OpenImageIO6v3_1_010ImageInput8errorfmtIJEEEvPKcDpRKT_(ptr noundef nonnull align 8 dereferenceable(184) %0, ptr noundef nonnull @.str.84)
  br label %16

10:                                               ; preds = %6
  %11 = tail call noundef nonnull align 8 dereferenceable(160) ptr @_ZN11OpenImageIO6v3_1_016OpenEXRCoreInput9init_partEii(ptr noundef nonnull align 8 dereferenceable(280) %0, i32 noundef %1, i32 noundef %2)
  %12 = add nsw i32 %3, 1
  %13 = getelementptr inbounds nuw i8, ptr %11, i64 60
  %14 = load i32, ptr %13, align 4, !tbaa !303
  %15 = tail call noundef zeroext i1 @_ZN11OpenImageIO6v3_1_016OpenEXRCoreInput21read_native_scanlinesEiiiiiiiPv(ptr noundef nonnull align 8 dereferenceable(280) %0, i32 noundef %1, i32 noundef %2, i32 noundef %3, i32 noundef %12, i32 poison, i32 noundef 0, i32 noundef %14, ptr noundef %5)
  br label %16

16:                                               ; preds = %10, %9
  %.0 = phi i1 [ %15, %10 ], [ false, %9 ]
  ret i1 %.0
}